; Function Attrs: nofree null_pointer_is_valid sspstrong uwtable
define internal void @ref_power_level(ptr noundef %0, i8 noundef signext %1) #3 {
  %.not = icmp eq i8 %1, 127
  br i1 %.not, label %6, label %3

3:                                                ; preds = %2
  %4 = sext i8 %1 to i32
  %5 = tail call i32 (ptr, i64, i32, i64, ptr, ...) @__snprintf_chk(ptr noundef %0, i64 noundef 240, i32 noundef 2, i64 noundef -1, ptr noundef nonnull @.str.1772, i32 noundef %4)
  br label %8

6:                                                ; preds = %2
  %7 = tail call i32 (ptr, i64, i32, i64, ptr, ...) @__snprintf_chk(ptr noundef %0, i64 noundef 240, i32 noundef 2, i64 noundef -1, ptr noundef nonnull @.str.1771)
  br label %8

8:                                                ; preds = %6, %3
  ret void
}